; ModuleID = 'source-C-CXX/22/1075.c'
source_filename = "source-C-CXX/22/1075.c"
target datalayout = "e-m:e-p270:32:32-p271:32:32-p272:64:64-i64:64-f80:128-n8:16:32:64-S128"
target triple = "x86_64-pc-linux-gnu"

@.str = private unnamed_addr constant [3 x i8] c"%s\00", align 1
@.str.1 = private unnamed_addr constant [4 x i8] c"%s \00", align 1

; Function Attrs: nofree nounwind sspstrong uwtable
define dso_local void @main() local_unnamed_addr #0 {
  %1 = alloca [100 x [100 x i8]], align 16
  %2 = alloca [100 x i8], align 16
  %3 = getelementptr inbounds [100 x [100 x i8]], [100 x [100 x i8]]* %1, i64 0, i64 0, i64 0
  call void @llvm.lifetime.start.p0i8(i64 10000, i8* nonnull %3) #5
  %4 = getelementptr inbounds [100 x i8], [100 x i8]* %2, i64 0, i64 0
  call void @llvm.lifetime.start.p0i8(i64 100, i8* nonnull %4) #5
  br label %5

5:                                                ; preds = %5, %0
  %6 = phi i64 [ %11, %5 ], [ 0, %0 ]
  %7 = getelementptr inbounds [100 x [100 x i8]], [100 x [100 x i8]]* %1, i64 0, i64 %6
  %8 = getelementptr inbounds [100 x i8], [100 x i8]* %7, i64 0, i64 0
  %9 = call i32 (i8*, ...) @__isoc99_scanf(i8* getelementptr inbounds ([3 x i8], [3 x i8]* @.str, i64 0, i64 0), i8* nonnull %8)
  %10 = icmp eq i32 %9, -1
  %11 = add nuw i64 %6, 1
  br i1 %10, label %12, label %5, !llvm.loop !5

12:                                               ; preds = %5
  %13 = trunc i64 %6 to i32
  %14 = icmp ult i32 %13, 2
  br i1 %14, label %40, label %15

15:                                               ; preds = %12
  %16 = lshr i64 %6, 1
  %17 = and i64 %16, 2147483647
  br label %24

18:                                               ; preds = %24
  %19 = icmp ugt i32 %13, 1
  br i1 %19, label %20, label %40

20:                                               ; preds = %18
  %21 = add i32 %13, -1
  %22 = call i32 @llvm.smax.i32(i32 %21, i32 1)
  %23 = zext i32 %22 to i64
  br label %34

24:                                               ; preds = %15, %24
  %25 = phi i64 [ 0, %15 ], [ %32, %24 ]
  %26 = getelementptr inbounds [100 x [100 x i8]], [100 x [100 x i8]]* %1, i64 0, i64 %25, i64 0
  %27 = call i8* @strcpy(i8* noundef nonnull %4, i8* noundef nonnull %26) #5
  %28 = xor i64 %25, -1
  %29 = getelementptr inbounds [100 x i8], [100 x i8]* %7, i64 %28, i64 0
  %30 = call i8* @strcpy(i8* noundef nonnull %26, i8* noundef nonnull %29) #5
  %31 = call i8* @strcpy(i8* noundef nonnull %29, i8* noundef nonnull %4) #5
  %32 = add nuw nsw i64 %25, 1
  %33 = icmp eq i64 %32, %17
  br i1 %33, label %18, label %24, !llvm.loop !7

34:                                               ; preds = %20, %34
  %35 = phi i64 [ 0, %20 ], [ %38, %34 ]
  %36 = getelementptr inbounds [100 x [100 x i8]], [100 x [100 x i8]]* %1, i64 0, i64 %35, i64 0
  %37 = call i32 (i8*, ...) @printf(i8* nonnull dereferenceable(1) getelementptr inbounds ([4 x i8], [4 x i8]* @.str.1, i64 0, i64 0), i8* nonnull %36)
  %38 = add nuw nsw i64 %35, 1
  %39 = icmp eq i64 %38, %23
  br i1 %39, label %40, label %34, !llvm.loop !8

40:                                               ; preds = %34, %12, %18
  %41 = getelementptr inbounds [100 x i8], [100 x i8]* %7, i64 -1, i64 0
  %42 = call i32 (i8*, ...) @printf(i8* nonnull dereferenceable(1) getelementptr inbounds ([3 x i8], [3 x i8]* @.str, i64 0, i64 0), i8* nonnull %41)
  call void @llvm.lifetime.end.p0i8(i64 100, i8* nonnull %4) #5
  call void @llvm.lifetime.end.p0i8(i64 10000, i8* nonnull %3) #5
  ret void
}

; Function Attrs: argmemonly mustprogress nofree nosync nounwind willreturn
declare void @llvm.lifetime.start.p0i8(i64 immarg, i8* nocapture) #1

; Function Attrs: nofree nounwind
declare noundef i32 @__isoc99_scanf(i8* nocapture noundef readonly, ...) local_unnamed_addr #2

; Function Attrs: argmemonly mustprogress nofree nounwind willreturn
declare i8* @strcpy(i8* noalias returned writeonly, i8* noalias nocapture readonly) local_unnamed_addr #3

; Function Attrs: nofree nounwind
declare noundef i32 @printf(i8* nocapture noundef readonly, ...) local_unnamed_addr #2

; Function Attrs: argmemonly mustprogress nofree nosync nounwind willreturn
declare void @llvm.lifetime.end.p0i8(i64 immarg, i8* nocapture) #1

; Function Attrs: nofree nosync nounwind readnone speculatable willreturn
declare i32 @llvm.smax.i32(i32, i32) #4


!llvm.module.flags = !{!0, !1, !2, !3}
!llvm.ident = !{!4}

!0 = !{i32 1, !"wchar_size", i32 4}
!1 = !{i32 7, !"PIC Level", i32 2}
!2 = !{i32 7, !"PIE Level", i32 2}
!3 = !{i32 7, !"uwtable", i32 1}
!4 = !{!"clang version 13.0.0"}
!5 = distinct !{!5, !6}
!6 = !{!"llvm.loop.mustprogress"}
!7 = distinct !{!7, !6}
!8 = distinct !{!8, !6}
